; Function Attrs: mustprogress uwtable
define dso_local void @_ZN11cmXMLWriter12FragmentFileEPKc(ptr noundef nonnull align 8 captures(none) dereferenceable(83) %0, ptr noundef %1) local_unnamed_addr #0 align 2 personality ptr @__gxx_personality_v0 {
  %3 = alloca %"class.std::basic_ifstream", align 8
  tail call void @_ZN11cmXMLWriter17CloseStartElementEv(ptr noundef nonnull align 8 dereferenceable(83) %0)
  call void @llvm.lifetime.start.p0(i64 520, ptr nonnull %3) #17
  call void @_ZNSt14basic_ifstreamIcSt11char_traitsIcEEC1EPKcSt13_Ios_Openmode(ptr noundef nonnull align 8 dereferenceable(256) %3, ptr noundef %1, i32 noundef 12)
  %4 = load ptr, ptr %0, align 8, !tbaa !31
  %5 = getelementptr inbounds nuw i8, ptr %3, i64 16
  %6 = invoke noundef nonnull align 8 dereferenceable(8) ptr @_ZNSolsEPSt15basic_streambufIcSt11char_traitsIcEE(ptr noundef nonnull align 8 dereferenceable(8) %4, ptr noundef nonnull %5)
          to label %7 unwind label %8

7:                                                ; preds = %2
  call void @_ZNSt14basic_ifstreamIcSt11char_traitsIcEED1Ev(ptr noundef nonnull align 8 dereferenceable(256) %3) #17
  call void @llvm.lifetime.end.p0(i64 520, ptr nonnull %3) #17
  ret void

8:                                                ; preds = %2
  %9 = landingpad { ptr, i32 }
          cleanup
  call void @_ZNSt14basic_ifstreamIcSt11char_traitsIcEED1Ev(ptr noundef nonnull align 8 dereferenceable(256) %3) #17
  call void @llvm.lifetime.end.p0(i64 520, ptr nonnull %3) #17
  resume { ptr, i32 } %9
}